; Function Attrs: mustprogress nounwind uwtable
define hidden void @_ZN10ODDLParser7ContextD2Ev(ptr noundef nonnull align 8 captures(none) dereferenceable(8) %0) unnamed_addr #1 align 2 personality ptr @__gxx_personality_v0 {
  %2 = load ptr, ptr %0, align 8
  %3 = icmp eq ptr %2, null
  br i1 %3, label %_ZN10ODDLParser7Context5clearEv.exit, label %4

4:                                                ; preds = %1
  tail call void @_ZN10ODDLParser7DDLNodeD1Ev(ptr noundef nonnull align 8 dereferenceable(136) %2) #12
  tail call void @_ZdlPvm(ptr noundef nonnull %2, i64 noundef 136) #13
  br label %_ZN10ODDLParser7Context5clearEv.exit

_ZN10ODDLParser7Context5clearEv.exit:             ; preds = %1, %4
  store ptr null, ptr %0, align 8
  ret void
}